

Microchip Technology PIC LITE Macro Assembler V1.32 build 58300 
                                                                                               Wed Apr 19 10:34:27 2017

Microchip Technology Omniscient Code Generator (Lite mode) build 58300
     1                           	processor	16F1827
     2                           	opt	pw 120
     3                           	opt	lm
     4                           	psect	text0,local,class=CODE,merge=1,delta=2
     5                           	psect	cinit,global,class=CODE,merge=1,delta=2
     6                           	psect	bssCOMMON,global,class=COMMON,space=1,delta=1
     7                           	psect	bssBANK0,global,class=BANK0,space=1,delta=1
     8                           	psect	cstackCOMMON,global,class=COMMON,space=1,delta=1
     9                           	psect	cstackBANK0,global,class=BANK0,space=1,delta=1
    10                           	psect	maintext,global,class=CODE,merge=1,split=1,delta=2
    11                           	psect	text1,local,class=CODE,merge=1,delta=2
    12                           	psect	text2,local,class=CODE,merge=1,delta=2
    13                           	psect	text3,local,class=CODE,merge=1,delta=2
    14                           	psect	text4,local,class=CODE,merge=1,delta=2
    15                           	psect	intentry,global,class=CODE,delta=2
    16                           	psect	text6,local,class=CODE,merge=1,delta=2
    17                           	psect	text7,local,class=CODE,merge=1,delta=2
    18                           	psect	text8,local,class=CODE,merge=1,delta=2
    19                           	dabs	1,0x7E,2
    20  0000                     	;# 
    21  0001                     	;# 
    22  0002                     	;# 
    23  0003                     	;# 
    24  0004                     	;# 
    25  0005                     	;# 
    26  0006                     	;# 
    27  0007                     	;# 
    28  0008                     	;# 
    29  0009                     	;# 
    30  000A                     	;# 
    31  000B                     	;# 
    32  000C                     	;# 
    33  000D                     	;# 
    34  0011                     	;# 
    35  0012                     	;# 
    36  0013                     	;# 
    37  0014                     	;# 
    38  0015                     	;# 
    39  0016                     	;# 
    40  0016                     	;# 
    41  0017                     	;# 
    42  0018                     	;# 
    43  0019                     	;# 
    44  001A                     	;# 
    45  001B                     	;# 
    46  001C                     	;# 
    47  001E                     	;# 
    48  001F                     	;# 
    49  008C                     	;# 
    50  008D                     	;# 
    51  0091                     	;# 
    52  0092                     	;# 
    53  0093                     	;# 
    54  0094                     	;# 
    55  0095                     	;# 
    56  0096                     	;# 
    57  0097                     	;# 
    58  0098                     	;# 
    59  0099                     	;# 
    60  009A                     	;# 
    61  009B                     	;# 
    62  009B                     	;# 
    63  009C                     	;# 
    64  009D                     	;# 
    65  009E                     	;# 
    66  010C                     	;# 
    67  010D                     	;# 
    68  0111                     	;# 
    69  0112                     	;# 
    70  0113                     	;# 
    71  0114                     	;# 
    72  0115                     	;# 
    73  0116                     	;# 
    74  0117                     	;# 
    75  0118                     	;# 
    76  0119                     	;# 
    77  011A                     	;# 
    78  011B                     	;# 
    79  011D                     	;# 
    80  011E                     	;# 
    81  018C                     	;# 
    82  018D                     	;# 
    83  0191                     	;# 
    84  0191                     	;# 
    85  0192                     	;# 
    86  0193                     	;# 
    87  0193                     	;# 
    88  0193                     	;# 
    89  0194                     	;# 
    90  0195                     	;# 
    91  0196                     	;# 
    92  0199                     	;# 
    93  019A                     	;# 
    94  019B                     	;# 
    95  019B                     	;# 
    96  019B                     	;# 
    97  019B                     	;# 
    98  019C                     	;# 
    99  019C                     	;# 
   100  019D                     	;# 
   101  019E                     	;# 
   102  019F                     	;# 
   103  020C                     	;# 
   104  020D                     	;# 
   105  0211                     	;# 
   106  0211                     	;# 
   107  0212                     	;# 
   108  0212                     	;# 
   109  0213                     	;# 
   110  0213                     	;# 
   111  0214                     	;# 
   112  0214                     	;# 
   113  0215                     	;# 
   114  0215                     	;# 
   115  0215                     	;# 
   116  0216                     	;# 
   117  0216                     	;# 
   118  0217                     	;# 
   119  0217                     	;# 
   120  0219                     	;# 
   121  021A                     	;# 
   122  021B                     	;# 
   123  021C                     	;# 
   124  021D                     	;# 
   125  021E                     	;# 
   126  021F                     	;# 
   127  0291                     	;# 
   128  0291                     	;# 
   129  0292                     	;# 
   130  0293                     	;# 
   131  0294                     	;# 
   132  0295                     	;# 
   133  0295                     	;# 
   134  0296                     	;# 
   135  0298                     	;# 
   136  0298                     	;# 
   137  0299                     	;# 
   138  029A                     	;# 
   139  029B                     	;# 
   140  029C                     	;# 
   141  029C                     	;# 
   142  029D                     	;# 
   143  029E                     	;# 
   144  029E                     	;# 
   145  0311                     	;# 
   146  0311                     	;# 
   147  0312                     	;# 
   148  0313                     	;# 
   149  0318                     	;# 
   150  0318                     	;# 
   151  0319                     	;# 
   152  031A                     	;# 
   153  0394                     	;# 
   154  0395                     	;# 
   155  0396                     	;# 
   156  039A                     	;# 
   157  039C                     	;# 
   158  039D                     	;# 
   159  039E                     	;# 
   160  039F                     	;# 
   161  0415                     	;# 
   162  0416                     	;# 
   163  0417                     	;# 
   164  041C                     	;# 
   165  041D                     	;# 
   166  041E                     	;# 
   167  0FE4                     	;# 
   168  0FE5                     	;# 
   169  0FE6                     	;# 
   170  0FE7                     	;# 
   171  0FE8                     	;# 
   172  0FE9                     	;# 
   173  0FEA                     	;# 
   174  0FEB                     	;# 
   175  0FED                     	;# 
   176  0FEE                     	;# 
   177  0FEF                     	;# 
   178  0000                     	;# 
   179  0001                     	;# 
   180  0002                     	;# 
   181  0003                     	;# 
   182  0004                     	;# 
   183  0005                     	;# 
   184  0006                     	;# 
   185  0007                     	;# 
   186  0008                     	;# 
   187  0009                     	;# 
   188  000A                     	;# 
   189  000B                     	;# 
   190  000C                     	;# 
   191  000D                     	;# 
   192  0011                     	;# 
   193  0012                     	;# 
   194  0013                     	;# 
   195  0014                     	;# 
   196  0015                     	;# 
   197  0016                     	;# 
   198  0016                     	;# 
   199  0017                     	;# 
   200  0018                     	;# 
   201  0019                     	;# 
   202  001A                     	;# 
   203  001B                     	;# 
   204  001C                     	;# 
   205  001E                     	;# 
   206  001F                     	;# 
   207  008C                     	;# 
   208  008D                     	;# 
   209  0091                     	;# 
   210  0092                     	;# 
   211  0093                     	;# 
   212  0094                     	;# 
   213  0095                     	;# 
   214  0096                     	;# 
   215  0097                     	;# 
   216  0098                     	;# 
   217  0099                     	;# 
   218  009A                     	;# 
   219  009B                     	;# 
   220  009B                     	;# 
   221  009C                     	;# 
   222  009D                     	;# 
   223  009E                     	;# 
   224  010C                     	;# 
   225  010D                     	;# 
   226  0111                     	;# 
   227  0112                     	;# 
   228  0113                     	;# 
   229  0114                     	;# 
   230  0115                     	;# 
   231  0116                     	;# 
   232  0117                     	;# 
   233  0118                     	;# 
   234  0119                     	;# 
   235  011A                     	;# 
   236  011B                     	;# 
   237  011D                     	;# 
   238  011E                     	;# 
   239  018C                     	;# 
   240  018D                     	;# 
   241  0191                     	;# 
   242  0191                     	;# 
   243  0192                     	;# 
   244  0193                     	;# 
   245  0193                     	;# 
   246  0193                     	;# 
   247  0194                     	;# 
   248  0195                     	;# 
   249  0196                     	;# 
   250  0199                     	;# 
   251  019A                     	;# 
   252  019B                     	;# 
   253  019B                     	;# 
   254  019B                     	;# 
   255  019B                     	;# 
   256  019C                     	;# 
   257  019C                     	;# 
   258  019D                     	;# 
   259  019E                     	;# 
   260  019F                     	;# 
   261  020C                     	;# 
   262  020D                     	;# 
   263  0211                     	;# 
   264  0211                     	;# 
   265  0212                     	;# 
   266  0212                     	;# 
   267  0213                     	;# 
   268  0213                     	;# 
   269  0214                     	;# 
   270  0214                     	;# 
   271  0215                     	;# 
   272  0215                     	;# 
   273  0215                     	;# 
   274  0216                     	;# 
   275  0216                     	;# 
   276  0217                     	;# 
   277  0217                     	;# 
   278  0219                     	;# 
   279  021A                     	;# 
   280  021B                     	;# 
   281  021C                     	;# 
   282  021D                     	;# 
   283  021E                     	;# 
   284  021F                     	;# 
   285  0291                     	;# 
   286  0291                     	;# 
   287  0292                     	;# 
   288  0293                     	;# 
   289  0294                     	;# 
   290  0295                     	;# 
   291  0295                     	;# 
   292  0296                     	;# 
   293  0298                     	;# 
   294  0298                     	;# 
   295  0299                     	;# 
   296  029A                     	;# 
   297  029B                     	;# 
   298  029C                     	;# 
   299  029C                     	;# 
   300  029D                     	;# 
   301  029E                     	;# 
   302  029E                     	;# 
   303  0311                     	;# 
   304  0311                     	;# 
   305  0312                     	;# 
   306  0313                     	;# 
   307  0318                     	;# 
   308  0318                     	;# 
   309  0319                     	;# 
   310  031A                     	;# 
   311  0394                     	;# 
   312  0395                     	;# 
   313  0396                     	;# 
   314  039A                     	;# 
   315  039C                     	;# 
   316  039D                     	;# 
   317  039E                     	;# 
   318  039F                     	;# 
   319  0415                     	;# 
   320  0416                     	;# 
   321  0417                     	;# 
   322  041C                     	;# 
   323  041D                     	;# 
   324  041E                     	;# 
   325  0FE4                     	;# 
   326  0FE5                     	;# 
   327  0FE6                     	;# 
   328  0FE7                     	;# 
   329  0FE8                     	;# 
   330  0FE9                     	;# 
   331  0FEA                     	;# 
   332  0FEB                     	;# 
   333  0FED                     	;# 
   334  0FEE                     	;# 
   335  0FEF                     	;# 
   336  000C                     _PORTA	set	12
   337  000D                     _PORTB	set	13
   338  0093                     _BCL1IF	set	147
   339  005F                     _GIE	set	95
   340  005E                     _PEIE	set	94
   341  006B                     _RB3	set	107
   342  008B                     _SSP1IF	set	139
   343  0099                     _TMR4IF	set	153
   344  009D                     _ADCON0	set	157
   345  009E                     _ADCON1	set	158
   346  009C                     _ADRESH	set	156
   347  009B                     _ADRESL	set	155
   348  0099                     _OSCCON	set	153
   349  008C                     _TRISA	set	140
   350  008D                     _TRISB	set	141
   351  0493                     _BCL1IE	set	1171
   352  04E9                     _GO_nDONE	set	1257
   353  048B                     _SSP1IE	set	1163
   354  0499                     _TMR4IE	set	1177
   355  018C                     _ANSELA	set	396
   356  018D                     _ANSELB	set	397
   357  0212                     _SSP1ADD	set	530
   358  0211                     _SSP1BUF	set	529
   359  0215                     _SSP1CON1	set	533
   360  0216                     _SSP1CON2	set	534
   361  0216                     _SSP1CON2bits	set	534
   362  0214                     _SSP1STAT	set	532
   363  0416                     _PR4	set	1046
   364  0417                     _T4CON	set	1047
   365  0415                     _TMR4	set	1045
   366  20BA                     _TMR4ON	set	8378
   367                           
   368                           	psect	text0
   369  0000                     __ptext0:	
   370                           ; #config settings
   371                           
   372                           
   373                           ;psect for function _I2C_idle_check
   374  0000                     
   375                           	psect	cinit
   376  0049                     start_initialization:	
   377  0049                     __initialization:	
   378                           
   379                           ; Clear objects allocated to COMMON
   380  0049  01FD               	clrf	__pbssCOMMON& (0+127)
   381                           
   382                           ; Clear objects allocated to BANK0
   383  004A  01AB               	clrf	__pbssBANK0& (0+127)
   384  004B  01AC               	clrf	(__pbssBANK0+1)& (0+127)
   385  004C                     end_of_initialization:	
   386                           ;End of C runtime variable initialization code
   387                           
   388  004C                     __end_of__initialization:	
   389  004C  107E               	bcf	pic14e$flags,0	;clear compiler interrupt flag
   390  004D  0020               	movlb	0
   391  004E  3181  2902         	ljmp	_main	;jump to C main() function
   392                           
   393                           	psect	bssCOMMON
   394  007D                     __pbssCOMMON:	
   395  007D                     _send_data:	
   396  007D                     	ds	1
   397                           
   398                           	psect	bssBANK0
   399  002B                     __pbssBANK0:	
   400  002B                     interruption@counter:	
   401  002B                     	ds	2
   402                           
   403                           	psect	cstackCOMMON
   404  0070                     __pcstackCOMMON:	
   405  0070                     ?_init:	
   406  0070                     ?_init_I2C_master:	
   407                           ; 0 bytes @ 0x0
   408                           
   409  0070                     ?_init_Timer4:	
   410                           ; 0 bytes @ 0x0
   411                           
   412  0070                     ?_I2C_idle_check:	
   413                           ; 0 bytes @ 0x0
   414                           
   415  0070                     ??_I2C_idle_check:	
   416                           ; 0 bytes @ 0x0
   417                           
   418  0070                     ?_interruption:	
   419                           ; 0 bytes @ 0x0
   420                           
   421  0070                     ?_main:	
   422                           ; 0 bytes @ 0x0
   423                           
   424  0070                     ?_adconv:	
   425                           ; 0 bytes @ 0x0
   426                           
   427  0070                     adconv@pin_select:	
   428                           ; 2 bytes @ 0x0
   429                           
   430                           
   431                           ; 2 bytes @ 0x0
   432  0070                     	ds	1
   433  0071                     ?_I2C_send_data:	
   434  0071                     I2C_send_data@data:	
   435                           ; 0 bytes @ 0x1
   436                           
   437                           
   438                           ; 1 bytes @ 0x1
   439  0071                     	ds	1
   440  0072                     ??_adconv:	
   441  0072                     ??_I2C_send_data:	
   442                           ; 0 bytes @ 0x2
   443                           
   444  0072                     I2C_send_data@addr:	
   445                           ; 0 bytes @ 0x2
   446                           
   447                           
   448                           ; 1 bytes @ 0x2
   449  0072                     	ds	7
   450  0079                     adconv@temp:	
   451                           
   452                           ; 2 bytes @ 0x9
   453  0079                     	ds	2
   454  007B                     interruption@data:	
   455                           
   456                           ; 2 bytes @ 0xB
   457  007B                     	ds	2
   458                           
   459                           	psect	cstackBANK0
   460  0020                     __pcstackBANK0:	
   461  0020                     ??_interruption:	
   462                           
   463                           ; 0 bytes @ 0x0
   464  0020                     	ds	4
   465  0024                     ?_init_adcon:	
   466  0024                     ??_init_I2C_master:	
   467                           ; 0 bytes @ 0x4
   468                           
   469  0024                     ??_init_Timer4:	
   470                           ; 0 bytes @ 0x4
   471                           
   472  0024                     init_adcon@anselA:	
   473                           ; 0 bytes @ 0x4
   474                           
   475                           
   476                           ; 2 bytes @ 0x4
   477  0024                     	ds	2
   478  0026                     init_adcon@anselB:	
   479                           
   480                           ; 2 bytes @ 0x6
   481  0026                     	ds	2
   482  0028                     ??_init:	
   483  0028                     ??_init_adcon:	
   484                           ; 0 bytes @ 0x8
   485                           
   486                           
   487                           ; 0 bytes @ 0x8
   488  0028                     	ds	1
   489  0029                     init@i:	
   490                           
   491                           ; 2 bytes @ 0x9
   492  0029                     	ds	2
   493  002B                     ??_main:	
   494                           
   495                           	psect	maintext
   496  0102                     __pmaintext:	
   497                           ; 0 bytes @ 0xB
   498 ;;
   499 ;;Main: autosize = 0, tempsize = 0, incstack = 0, save=0
   500 ;;
   501 ;; *************** function _main *****************
   502 ;; Defined at:
   503 ;;		line 59 in file "main.c"
   504 ;; Parameters:    Size  Location     Type
   505 ;;		None
   506 ;; Auto vars:     Size  Location     Type
   507 ;;		None
   508 ;; Return value:  Size  Location     Type
   509 ;;		None               void
   510 ;; Registers used:
   511 ;;		wreg, status,2, status,0, pclath, cstack
   512 ;; Tracked objects:
   513 ;;		On entry : 17F/0
   514 ;;		On exit  : 0/0
   515 ;;		Unchanged: 0/0
   516 ;; Data sizes:     COMMON   BANK0   BANK1   BANK2   BANK3   BANK4
   517 ;;      Params:         0       0       0       0       0       0
   518 ;;      Locals:         0       0       0       0       0       0
   519 ;;      Temps:          0       0       0       0       0       0
   520 ;;      Totals:         0       0       0       0       0       0
   521 ;;Total ram usage:        0 bytes
   522 ;; Hardware stack levels required when called:    5
   523 ;; This function calls:
   524 ;;		_init
   525 ;; This function is called by:
   526 ;;		Startup code after reset
   527 ;; This function uses a non-reentrant model
   528 ;;
   529                           
   530                           
   531                           ;psect for function _main
   532  0102                     _main:	
   533                           
   534                           ;main.c: 60: init();
   535                           
   536                           ;incstack = 0
   537                           ; Regs used in _main: [wreg+status,2+status,0+pclath+cstack]
   538  0102  3180  2050  3181   	fcall	_init
   539                           
   540                           ;main.c: 62: RB3 = 1;
   541  0105  0020               	movlb	0	; select bank0
   542  0106  158D               	bsf	13,3	;volatile
   543  0107                     l86:	
   544                           ;main.c: 63: while(1);
   545                           
   546  0107  2907               	goto	l86
   547  0108                     __end_of_main:	
   548                           ;main.c: 64: return;
   549                           
   550                           
   551                           	psect	text1
   552  0050                     __ptext1:	
   553 ;; *************** function _init *****************
   554 ;; Defined at:
   555 ;;		line 67 in file "main.c"
   556 ;; Parameters:    Size  Location     Type
   557 ;;		None
   558 ;; Auto vars:     Size  Location     Type
   559 ;;  i               2    9[BANK0 ] int 
   560 ;; Return value:  Size  Location     Type
   561 ;;		None               void
   562 ;; Registers used:
   563 ;;		wreg, status,2, status,0, pclath, cstack
   564 ;; Tracked objects:
   565 ;;		On entry : 0/0
   566 ;;		On exit  : 0/0
   567 ;;		Unchanged: 0/0
   568 ;; Data sizes:     COMMON   BANK0   BANK1   BANK2   BANK3   BANK4
   569 ;;      Params:         0       0       0       0       0       0
   570 ;;      Locals:         0       2       0       0       0       0
   571 ;;      Temps:          0       1       0       0       0       0
   572 ;;      Totals:         0       3       0       0       0       0
   573 ;;Total ram usage:        3 bytes
   574 ;; Hardware stack levels used:    1
   575 ;; Hardware stack levels required when called:    4
   576 ;; This function calls:
   577 ;;		_init_I2C_master
   578 ;;		_init_Timer4
   579 ;;		_init_adcon
   580 ;; This function is called by:
   581 ;;		_main
   582 ;; This function uses a non-reentrant model
   583 ;;
   584                           
   585                           
   586                           ;psect for function _init
   587  0050                     _init:	
   588                           
   589                           ;main.c: 68: OSCCON = 0b01111010;
   590                           
   591                           ;incstack = 0
   592                           ; Regs used in _init: [wreg+status,2+status,0+pclath+cstack]
   593  0050  307A               	movlw	122
   594  0051  0021               	movlb	1	; select bank1
   595  0052  0099               	movwf	25	;volatile
   596                           
   597                           ;main.c: 69: TRISA = 0x01;
   598  0053  3001               	movlw	1
   599  0054  008C               	movwf	12	;volatile
   600                           
   601                           ;main.c: 70: TRISB = 0b00010010;
   602  0055  3012               	movlw	18
   603  0056  008D               	movwf	13	;volatile
   604                           
   605                           ;main.c: 71: PORTA = 0x00;
   606  0057  0020               	movlb	0	; select bank0
   607  0058  018C               	clrf	12	;volatile
   608                           
   609                           ;main.c: 72: PORTB = 0x00;
   610  0059  018D               	clrf	13	;volatile
   611                           
   612                           ;main.c: 73: GIE = 1;
   613  005A  178B               	bsf	11,7	;volatile
   614                           
   615                           ;main.c: 74: PEIE = 1;
   616  005B  170B               	bsf	11,6	;volatile
   617                           
   618                           ;main.c: 75: init_adcon(0b00000001,0x00);
   619  005C  3001               	movlw	1
   620  005D  00A4               	movwf	init_adcon@anselA
   621  005E  3000               	movlw	0
   622  005F  00A5               	movwf	init_adcon@anselA+1
   623  0060  3000               	movlw	0
   624  0061  00A6               	movwf	init_adcon@anselB
   625  0062  3000               	movlw	0
   626  0063  00A7               	movwf	init_adcon@anselB+1
   627  0064  3180  20D1  3180   	fcall	_init_adcon
   628                           
   629                           ;main.c: 76: for(int i = 0; i < 10000; i++);
   630  0067  0020               	movlb	0	; select bank0
   631  0068  01A9               	clrf	init@i
   632  0069  01AA               	clrf	init@i+1
   633  006A  082A               	movf	init@i+1,w
   634  006B  3A80               	xorlw	128
   635  006C  00A8               	movwf	??_init
   636  006D  30A7               	movlw	167
   637  006E  0228               	subwf	??_init,w
   638  006F  1D03               	skipz
   639  0070  2873               	goto	u135
   640  0071  3010               	movlw	16
   641  0072  0229               	subwf	init@i,w
   642  0073                     u135:	
   643  0073  1803               	btfsc	3,0
   644  0074  2885               	goto	l744
   645  0075                     l742:	
   646  0075  3001               	movlw	1
   647  0076  0020               	movlb	0	; select bank0
   648  0077  07A9               	addwf	init@i,f
   649  0078  3000               	movlw	0
   650  0079  3DAA               	addwfc	init@i+1,f
   651  007A  082A               	movf	init@i+1,w
   652  007B  3A80               	xorlw	128
   653  007C  00A8               	movwf	??_init
   654  007D  30A7               	movlw	167
   655  007E  0228               	subwf	??_init,w
   656  007F  1D03               	skipz
   657  0080  2883               	goto	u145
   658  0081  3010               	movlw	16
   659  0082  0229               	subwf	init@i,w
   660  0083                     u145:	
   661  0083  1C03               	skipc
   662  0084  2875               	goto	l742
   663  0085                     l744:	
   664                           
   665                           ;main.c: 77: init_I2C_master();
   666  0085  3180  20DF  3180   	fcall	_init_I2C_master
   667                           
   668                           ;main.c: 78: init_Timer4();
   669  0088  3180  20ED         	fcall	_init_Timer4
   670  008A  0008               	return
   671  008B                     __end_of_init:	
   672                           
   673                           	psect	text2
   674  00D1                     __ptext2:	
   675 ;; *************** function _init_adcon *****************
   676 ;; Defined at:
   677 ;;		line 26 in file "adcon.c"
   678 ;; Parameters:    Size  Location     Type
   679 ;;  anselA          2    4[BANK0 ] int 
   680 ;;  anselB          2    6[BANK0 ] int 
   681 ;; Auto vars:     Size  Location     Type
   682 ;;		None
   683 ;; Return value:  Size  Location     Type
   684 ;;		None               void
   685 ;; Registers used:
   686 ;;		wreg
   687 ;; Tracked objects:
   688 ;;		On entry : 0/0
   689 ;;		On exit  : 0/0
   690 ;;		Unchanged: 0/0
   691 ;; Data sizes:     COMMON   BANK0   BANK1   BANK2   BANK3   BANK4
   692 ;;      Params:         0       4       0       0       0       0
   693 ;;      Locals:         0       0       0       0       0       0
   694 ;;      Temps:          0       0       0       0       0       0
   695 ;;      Totals:         0       4       0       0       0       0
   696 ;;Total ram usage:        4 bytes
   697 ;; Hardware stack levels used:    1
   698 ;; Hardware stack levels required when called:    3
   699 ;; This function calls:
   700 ;;		Nothing
   701 ;; This function is called by:
   702 ;;		_init
   703 ;; This function uses a non-reentrant model
   704 ;;
   705                           
   706                           
   707                           ;psect for function _init_adcon
   708  00D1                     _init_adcon:	
   709                           
   710                           ;adcon.c: 27: ANSELA = anselA;
   711                           
   712                           ;incstack = 0
   713                           ; Regs used in _init_adcon: [wreg]
   714  00D1  0020               	movlb	0	; select bank0
   715  00D2  0824               	movf	init_adcon@anselA,w
   716  00D3  0023               	movlb	3	; select bank3
   717  00D4  008C               	movwf	12	;volatile
   718                           
   719                           ;adcon.c: 28: ANSELB = anselB;
   720  00D5  0020               	movlb	0	; select bank0
   721  00D6  0826               	movf	init_adcon@anselB,w
   722  00D7  0023               	movlb	3	; select bank3
   723  00D8  008D               	movwf	13	;volatile
   724                           
   725                           ;adcon.c: 29: ADCON1 = 0b10010000;
   726  00D9  3090               	movlw	144
   727  00DA  0021               	movlb	1	; select bank1
   728  00DB  009E               	movwf	30	;volatile
   729                           
   730                           ;adcon.c: 30: ADCON0 = 0b00000001;
   731  00DC  3001               	movlw	1
   732  00DD  009D               	movwf	29	;volatile
   733  00DE  0008               	return
   734  00DF                     __end_of_init_adcon:	
   735                           
   736                           	psect	text3
   737  00ED                     __ptext3:	
   738 ;; *************** function _init_Timer4 *****************
   739 ;; Defined at:
   740 ;;		line 81 in file "main.c"
   741 ;; Parameters:    Size  Location     Type
   742 ;;		None
   743 ;; Auto vars:     Size  Location     Type
   744 ;;		None
   745 ;; Return value:  Size  Location     Type
   746 ;;		None               void
   747 ;; Registers used:
   748 ;;		wreg, status,2
   749 ;; Tracked objects:
   750 ;;		On entry : 0/0
   751 ;;		On exit  : 0/0
   752 ;;		Unchanged: 0/0
   753 ;; Data sizes:     COMMON   BANK0   BANK1   BANK2   BANK3   BANK4
   754 ;;      Params:         0       0       0       0       0       0
   755 ;;      Locals:         0       0       0       0       0       0
   756 ;;      Temps:          0       0       0       0       0       0
   757 ;;      Totals:         0       0       0       0       0       0
   758 ;;Total ram usage:        0 bytes
   759 ;; Hardware stack levels used:    1
   760 ;; Hardware stack levels required when called:    3
   761 ;; This function calls:
   762 ;;		Nothing
   763 ;; This function is called by:
   764 ;;		_init
   765 ;; This function uses a non-reentrant model
   766 ;;
   767                           
   768                           
   769                           ;psect for function _init_Timer4
   770  00ED                     _init_Timer4:	
   771                           
   772                           ;main.c: 82: T4CON = 0b00000010;
   773                           
   774                           ;incstack = 0
   775                           ; Regs used in _init_Timer4: [wreg+status,2]
   776  00ED  3002               	movlw	2
   777  00EE  0028               	movlb	8	; select bank8
   778  00EF  0097               	movwf	23	;volatile
   779                           
   780                           ;main.c: 83: PR4 = 249;
   781  00F0  30F9               	movlw	249
   782  00F1  0096               	movwf	22	;volatile
   783                           
   784                           ;main.c: 84: TMR4IE = 1;
   785  00F2  0021               	movlb	1	; select bank1
   786  00F3  1493               	bsf	19,1	;volatile
   787                           
   788                           ;main.c: 85: TMR4 = 0;
   789  00F4  0028               	movlb	8	; select bank8
   790  00F5  0195               	clrf	21	;volatile
   791                           
   792                           ;main.c: 86: TMR4ON = 1;
   793  00F6  1517               	bsf	23,2	;volatile
   794  00F7  0008               	return
   795  00F8                     __end_of_init_Timer4:	
   796                           
   797                           	psect	text4
   798  00DF                     __ptext4:	
   799 ;; *************** function _init_I2C_master *****************
   800 ;; Defined at:
   801 ;;		line 89 in file "main.c"
   802 ;; Parameters:    Size  Location     Type
   803 ;;		None
   804 ;; Auto vars:     Size  Location     Type
   805 ;;		None
   806 ;; Return value:  Size  Location     Type
   807 ;;		None               void
   808 ;; Registers used:
   809 ;;		wreg
   810 ;; Tracked objects:
   811 ;;		On entry : 0/0
   812 ;;		On exit  : 0/0
   813 ;;		Unchanged: 0/0
   814 ;; Data sizes:     COMMON   BANK0   BANK1   BANK2   BANK3   BANK4
   815 ;;      Params:         0       0       0       0       0       0
   816 ;;      Locals:         0       0       0       0       0       0
   817 ;;      Temps:          0       0       0       0       0       0
   818 ;;      Totals:         0       0       0       0       0       0
   819 ;;Total ram usage:        0 bytes
   820 ;; Hardware stack levels used:    1
   821 ;; Hardware stack levels required when called:    3
   822 ;; This function calls:
   823 ;;		Nothing
   824 ;; This function is called by:
   825 ;;		_init
   826 ;; This function uses a non-reentrant model
   827 ;;
   828                           
   829                           
   830                           ;psect for function _init_I2C_master
   831  00DF                     _init_I2C_master:	
   832                           
   833                           ;main.c: 90: SSP1STAT = 0b10000000;
   834                           
   835                           ;incstack = 0
   836                           ; Regs used in _init_I2C_master: [wreg]
   837  00DF  3080               	movlw	128
   838  00E0  0024               	movlb	4	; select bank4
   839  00E1  0094               	movwf	20	;volatile
   840                           
   841                           ;main.c: 91: SSP1CON1 = 0b00101000;
   842  00E2  3028               	movlw	40
   843  00E3  0095               	movwf	21	;volatile
   844                           
   845                           ;main.c: 92: SSP1ADD = 0x27;
   846  00E4  3027               	movlw	39
   847  00E5  0092               	movwf	18	;volatile
   848                           
   849                           ;main.c: 93: SSP1IE = 1;
   850  00E6  0021               	movlb	1	; select bank1
   851  00E7  1591               	bsf	17,3	;volatile
   852                           
   853                           ;main.c: 94: BCL1IE = 1;
   854  00E8  1592               	bsf	18,3	;volatile
   855                           
   856                           ;main.c: 95: SSP1IF = 0;
   857  00E9  0020               	movlb	0	; select bank0
   858  00EA  1191               	bcf	17,3	;volatile
   859                           
   860                           ;main.c: 96: BCL1IF = 0;
   861  00EB  1192               	bcf	18,3	;volatile
   862  00EC  0008               	return
   863  00ED                     __end_of_init_I2C_master:	
   864                           
   865                           	psect	intentry
   866  0004                     __pintentry:	
   867 ;; *************** function _interruption *****************
   868 ;; Defined at:
   869 ;;		line 43 in file "main.c"
   870 ;; Parameters:    Size  Location     Type
   871 ;;		None
   872 ;; Auto vars:     Size  Location     Type
   873 ;;  data            2   11[COMMON] int 
   874 ;; Return value:  Size  Location     Type
   875 ;;		None               void
   876 ;; Registers used:
   877 ;;		wreg, status,2, status,0, pclath, cstack
   878 ;; Tracked objects:
   879 ;;		On entry : 0/0
   880 ;;		On exit  : 0/0
   881 ;;		Unchanged: 0/0
   882 ;; Data sizes:     COMMON   BANK0   BANK1   BANK2   BANK3   BANK4
   883 ;;      Params:         0       0       0       0       0       0
   884 ;;      Locals:         2       0       0       0       0       0
   885 ;;      Temps:          0       4       0       0       0       0
   886 ;;      Totals:         2       4       0       0       0       0
   887 ;;Total ram usage:        6 bytes
   888 ;; Hardware stack levels used:    1
   889 ;; Hardware stack levels required when called:    2
   890 ;; This function calls:
   891 ;;		_I2C_send_data
   892 ;;		_adconv
   893 ;; This function is called by:
   894 ;;		Interrupt level 1
   895 ;; This function uses a non-reentrant model
   896 ;;
   897                           
   898  0004                     _interruption:	
   899                           
   900                           ;incstack = 0
   901                           ; Regs used in _interruption: [wreg+status,2+status,0+pclath+cstack]
   902  0004  147E               	bsf	126,0	;set compiler interrupt flag
   903  0005  3180               	pagesel	$
   904  0006  0020               	movlb	0	; select bank0
   905  0007  087F               	movf	127,w
   906  0008  00A3               	movwf	??_interruption+3
   907                           
   908                           ;main.c: 44: static int counter = 0;
   909                           ;main.c: 45: if (TMR4IF == 1) {
   910  0009  1C93               	btfss	19,1	;volatile
   911  000A  2843               	goto	i1l83
   912                           
   913                           ;main.c: 46: if(counter < 250) {
   914  000B  082C               	movf	interruption@counter+1,w
   915  000C  3A80               	xorlw	128
   916  000D  00A0               	movwf	??_interruption
   917  000E  3080               	movlw	128
   918  000F  0220               	subwf	??_interruption,w
   919  0010  1D03               	skipz
   920  0011  2814               	goto	u16_25
   921  0012  30FA               	movlw	250
   922  0013  022B               	subwf	interruption@counter,w
   923  0014                     u16_25:	
   924  0014  1803               	skipnc
   925  0015  281C               	goto	i1l752
   926                           
   927                           ;main.c: 47: counter++;
   928  0016  3001               	movlw	1
   929  0017  0020               	movlb	0	; select bank0
   930  0018  07AB               	addwf	interruption@counter,f
   931  0019  3000               	movlw	0
   932  001A  3DAC               	addwfc	interruption@counter+1,f
   933                           
   934                           ;main.c: 48: } else {
   935  001B  2842               	goto	i1l760
   936  001C                     i1l752:	
   937                           
   938                           ;main.c: 50: int data = adconv(0b00000001);
   939  001C  3001               	movlw	1
   940  001D  00F0               	movwf	adconv@pin_select
   941  001E  3000               	movlw	0
   942  001F  00F1               	movwf	adconv@pin_select+1
   943  0020  3180  208B  3180   	fcall	_adconv
   944  0023  0871               	movf	?_adconv+1,w
   945  0024  01FC               	clrf	interruption@data+1
   946  0025  07FC               	addwf	interruption@data+1,f
   947  0026  0870               	movf	?_adconv,w
   948  0027  01FB               	clrf	interruption@data
   949  0028  07FB               	addwf	interruption@data,f
   950                           
   951                           ;main.c: 51: send_data = data >> 2;
   952  0029  087C               	movf	interruption@data+1,w
   953  002A  0020               	movlb	0	; select bank0
   954  002B  00A1               	movwf	??_interruption+1
   955  002C  087B               	movf	interruption@data,w
   956  002D  00A0               	movwf	??_interruption
   957  002E  0D21               	rlf	??_interruption+1,w
   958  002F  0CA1               	rrf	??_interruption+1,f
   959  0030  0CA0               	rrf	??_interruption,f
   960  0031  0D21               	rlf	??_interruption+1,w
   961  0032  0CA1               	rrf	??_interruption+1,f
   962  0033  0CA0               	rrf	??_interruption,f
   963  0034  0820               	movf	??_interruption,w
   964  0035  00A2               	movwf	??_interruption+2
   965  0036  0822               	movf	??_interruption+2,w
   966  0037  00FD               	movwf	_send_data
   967                           
   968                           ;main.c: 52: I2C_send_data(0x02, send_data);
   969  0038  087D               	movf	_send_data,w
   970  0039  00A0               	movwf	??_interruption
   971  003A  0820               	movf	??_interruption,w
   972  003B  00F1               	movwf	I2C_send_data@data
   973  003C  3002               	movlw	2
   974  003D  3180  20B6         	fcall	_I2C_send_data
   975                           
   976                           ;main.c: 53: counter = 0;
   977  003F  0020               	movlb	0	; select bank0
   978  0040  01AB               	clrf	interruption@counter
   979  0041  01AC               	clrf	interruption@counter+1
   980  0042                     i1l760:	
   981                           
   982                           ;main.c: 54: }
   983                           ;main.c: 55: TMR4IF = 0;
   984  0042  1093               	bcf	19,1	;volatile
   985  0043                     i1l83:	
   986  0043  0823               	movf	??_interruption+3,w
   987  0044  00FF               	movwf	127
   988  0045  107E               	bcf	126,0	;clear compiler interrupt flag
   989  0046  0009               	retfie
   990  0047                     __end_of_interruption:	
   991                           
   992                           	psect	text6
   993  008B                     __ptext6:	
   994 ;; *************** function _adconv *****************
   995 ;; Defined at:
   996 ;;		line 14 in file "adcon.c"
   997 ;; Parameters:    Size  Location     Type
   998 ;;  pin_select      2    0[COMMON] int 
   999 ;; Auto vars:     Size  Location     Type
  1000 ;;  temp            2    9[COMMON] int 
  1001 ;; Return value:  Size  Location     Type
  1002 ;;                  2    0[COMMON] int 
  1003 ;; Registers used:
  1004 ;;		wreg, status,2, status,0
  1005 ;; Tracked objects:
  1006 ;;		On entry : 0/0
  1007 ;;		On exit  : 0/0
  1008 ;;		Unchanged: 0/0
  1009 ;; Data sizes:     COMMON   BANK0   BANK1   BANK2   BANK3   BANK4
  1010 ;;      Params:         2       0       0       0       0       0
  1011 ;;      Locals:         2       0       0       0       0       0
  1012 ;;      Temps:          7       0       0       0       0       0
  1013 ;;      Totals:        11       0       0       0       0       0
  1014 ;;Total ram usage:       11 bytes
  1015 ;; Hardware stack levels used:    1
  1016 ;; This function calls:
  1017 ;;		Nothing
  1018 ;; This function is called by:
  1019 ;;		_interruption
  1020 ;; This function uses a non-reentrant model
  1021 ;;
  1022                           
  1023                           
  1024                           ;psect for function _adconv
  1025  008B                     _adconv:	
  1026                           
  1027                           ;adcon.c: 15: int temp;
  1028                           ;adcon.c: 17: ADCON0 = pin_select;
  1029                           
  1030                           ;incstack = 0
  1031                           ; Regs used in _adconv: [wreg+status,2+status,0]
  1032  008B  0870               	movf	adconv@pin_select,w
  1033  008C  0021               	movlb	1	; select bank1
  1034  008D  009D               	movwf	29	;volatile
  1035                           
  1036                           ;adcon.c: 18: _delay((unsigned long)((1)*(16000000/4000000.0)));
  1037  008E  3200               	nop2	;2 cycle nop
  1038  008F  3200               	nop2	;2 cycle nop
  1039                           
  1040                           ;adcon.c: 19: GO_nDONE = 1;
  1041  0090  0021               	movlb	1	; select bank1
  1042  0091  149D               	bsf	29,1	;volatile
  1043  0092                     i1l119:	
  1044                           ;adcon.c: 20: while(GO_nDONE);
  1045                           
  1046  0092  189D               	btfsc	29,1	;volatile
  1047  0093  2892               	goto	i1l119
  1048                           
  1049                           ;adcon.c: 21: temp = ADRESH;
  1050  0094  081C               	movf	28,w	;volatile
  1051  0095  00F2               	movwf	??_adconv
  1052  0096  01F3               	clrf	??_adconv+1
  1053  0097  0872               	movf	??_adconv,w
  1054  0098  00F9               	movwf	adconv@temp
  1055  0099  0873               	movf	??_adconv+1,w
  1056  009A  00FA               	movwf	adconv@temp+1
  1057                           
  1058                           ;adcon.c: 22: temp = (temp << 8) | ADRESL;
  1059  009B  081B               	movf	27,w	;volatile
  1060  009C  00F2               	movwf	??_adconv
  1061  009D  01F3               	clrf	??_adconv+1
  1062  009E  087A               	movf	adconv@temp+1,w
  1063  009F  00F5               	movwf	??_adconv+3
  1064  00A0  0879               	movf	adconv@temp,w
  1065  00A1  00F4               	movwf	??_adconv+2
  1066  00A2  0874               	movf	??_adconv+2,w
  1067  00A3  00F5               	movwf	??_adconv+3
  1068  00A4  01F4               	clrf	??_adconv+2
  1069  00A5  0872               	movf	??_adconv,w
  1070  00A6  0474               	iorwf	??_adconv+2,w
  1071  00A7  00F7               	movwf	??_adconv+5
  1072  00A8  0873               	movf	??_adconv+1,w
  1073  00A9  0475               	iorwf	??_adconv+3,w
  1074  00AA  00F8               	movwf	??_adconv+6
  1075  00AB  0877               	movf	??_adconv+5,w
  1076  00AC  00F9               	movwf	adconv@temp
  1077  00AD  0878               	movf	??_adconv+6,w
  1078  00AE  00FA               	movwf	adconv@temp+1
  1079                           
  1080                           ;adcon.c: 23: return temp;
  1081  00AF  087A               	movf	adconv@temp+1,w
  1082  00B0  01F1               	clrf	?_adconv+1
  1083  00B1  07F1               	addwf	?_adconv+1,f
  1084  00B2  0879               	movf	adconv@temp,w
  1085  00B3  01F0               	clrf	?_adconv
  1086  00B4  07F0               	addwf	?_adconv,f
  1087  00B5  0008               	return
  1088  00B6                     __end_of_adconv:	
  1089                           
  1090                           	psect	text7
  1091  00B6                     __ptext7:	
  1092 ;; *************** function _I2C_send_data *****************
  1093 ;; Defined at:
  1094 ;;		line 30 in file "main.c"
  1095 ;; Parameters:    Size  Location     Type
  1096 ;;  addr            1    wreg     unsigned char 
  1097 ;;  data            1    1[COMMON] unsigned char 
  1098 ;; Auto vars:     Size  Location     Type
  1099 ;;  addr            1    2[COMMON] unsigned char 
  1100 ;; Return value:  Size  Location     Type
  1101 ;;		None               void
  1102 ;; Registers used:
  1103 ;;		wreg, status,2, status,0, pclath, cstack
  1104 ;; Tracked objects:
  1105 ;;		On entry : 0/0
  1106 ;;		On exit  : 0/0
  1107 ;;		Unchanged: 0/0
  1108 ;; Data sizes:     COMMON   BANK0   BANK1   BANK2   BANK3   BANK4
  1109 ;;      Params:         1       0       0       0       0       0
  1110 ;;      Locals:         1       0       0       0       0       0
  1111 ;;      Temps:          0       0       0       0       0       0
  1112 ;;      Totals:         2       0       0       0       0       0
  1113 ;;Total ram usage:        2 bytes
  1114 ;; Hardware stack levels used:    1
  1115 ;; Hardware stack levels required when called:    1
  1116 ;; This function calls:
  1117 ;;		_I2C_idle_check
  1118 ;; This function is called by:
  1119 ;;		_interruption
  1120 ;; This function uses a non-reentrant model
  1121 ;;
  1122                           
  1123                           
  1124                           ;psect for function _I2C_send_data
  1125  00B6                     _I2C_send_data:	
  1126                           
  1127                           ;incstack = 0
  1128                           ; Regs used in _I2C_send_data: [wreg+status,2+status,0+pclath+cstack]
  1129                           ;I2C_send_data@addr stored from wreg
  1130  00B6  00F2               	movwf	I2C_send_data@addr
  1131                           
  1132                           ;main.c: 31: I2C_idle_check();
  1133  00B7  3180  20F8  3180   	fcall	_I2C_idle_check
  1134                           
  1135                           ;main.c: 32: SSP1CON2bits.SEN = 1;
  1136  00BA  0024               	movlb	4	; select bank4
  1137  00BB  1416               	bsf	22,0	;volatile
  1138                           
  1139                           ;main.c: 33: I2C_idle_check();
  1140  00BC  3180  20F8  3180   	fcall	_I2C_idle_check
  1141                           
  1142                           ;main.c: 34: SSP1BUF = addr << 1;
  1143  00BF  3572               	lslf	I2C_send_data@addr,w
  1144  00C0  0024               	movlb	4	; select bank4
  1145  00C1  0091               	movwf	17	;volatile
  1146  00C2                     i1l69:	
  1147                           ;main.c: 35: while(SSP1CON2bits.ACKSTAT == 1);
  1148                           
  1149  00C2  1B16               	btfsc	22,6	;volatile
  1150  00C3  28C2               	goto	i1l69
  1151                           
  1152                           ;main.c: 36: I2C_idle_check();
  1153  00C4  3180  20F8  3180   	fcall	_I2C_idle_check
  1154                           
  1155                           ;main.c: 37: SSP1BUF = data;
  1156  00C7  0871               	movf	I2C_send_data@data,w
  1157  00C8  0024               	movlb	4	; select bank4
  1158  00C9  0091               	movwf	17	;volatile
  1159  00CA                     i1l72:	
  1160                           ;main.c: 38: while(SSP1CON2bits.ACKSTAT == 1);
  1161                           
  1162  00CA  1B16               	btfsc	22,6	;volatile
  1163  00CB  28CA               	goto	i1l72
  1164                           
  1165                           ;main.c: 39: I2C_idle_check();
  1166  00CC  3180  20F8         	fcall	_I2C_idle_check
  1167                           
  1168                           ;main.c: 40: SSP1CON2bits.PEN = 1;
  1169  00CE  0024               	movlb	4	; select bank4
  1170  00CF  1516               	bsf	22,2	;volatile
  1171  00D0  0008               	return
  1172  00D1                     __end_of_I2C_send_data:	
  1173                           
  1174                           	psect	text8
  1175  00F8                     __ptext8:	
  1176 ;; *************** function _I2C_idle_check *****************
  1177 ;; Defined at:
  1178 ;;		line 26 in file "main.c"
  1179 ;; Parameters:    Size  Location     Type
  1180 ;;		None
  1181 ;; Auto vars:     Size  Location     Type
  1182 ;;		None
  1183 ;; Return value:  Size  Location     Type
  1184 ;;		None               void
  1185 ;; Registers used:
  1186 ;;		wreg, status,2, status,0
  1187 ;; Tracked objects:
  1188 ;;		On entry : 0/0
  1189 ;;		On exit  : 0/0
  1190 ;;		Unchanged: 0/0
  1191 ;; Data sizes:     COMMON   BANK0   BANK1   BANK2   BANK3   BANK4
  1192 ;;      Params:         0       0       0       0       0       0
  1193 ;;      Locals:         0       0       0       0       0       0
  1194 ;;      Temps:          1       0       0       0       0       0
  1195 ;;      Totals:         1       0       0       0       0       0
  1196 ;;Total ram usage:        1 bytes
  1197 ;; Hardware stack levels used:    1
  1198 ;; This function calls:
  1199 ;;		Nothing
  1200 ;; This function is called by:
  1201 ;;		_I2C_send_data
  1202 ;; This function uses a non-reentrant model
  1203 ;;
  1204                           
  1205                           
  1206                           ;psect for function _I2C_idle_check
  1207  00F8                     _I2C_idle_check:	
  1208  00F8                     i1l676:	
  1209                           ;main.c: 27: while (( SSP1CON2 & 0x1F ) | (SSP1STAT & 0x05)) ;
  1210                           
  1211                           ;incstack = 0
  1212                           ; Regs used in _I2C_idle_check: [wreg+status,2+status,0]
  1213                           
  1214  00F8  3005               	movlw	5
  1215  00F9  0024               	movlb	4	; select bank4
  1216  00FA  0514               	andwf	20,w	;volatile
  1217  00FB  00F0               	movwf	??_I2C_idle_check
  1218  00FC  0816               	movf	22,w	;volatile
  1219  00FD  391F               	andlw	31
  1220  00FE  0470               	iorwf	??_I2C_idle_check,w
  1221  00FF  1903               	btfsc	3,2
  1222  0100  0008               	return
  1223  0101  28F8               	goto	i1l676
  1224  0102                     __end_of_I2C_idle_check:	
  1225  007E                     btemp	set	126	;btemp
  1226  007E                     pic14e$flags	set	126
  1227  007E                     wtemp	set	126
  1228  007E                     wtemp0	set	126
  1229  0080                     wtemp1	set	128
  1230  0082                     wtemp2	set	130
  1231  0084                     wtemp3	set	132
  1232  0086                     wtemp4	set	134
  1233  0088                     wtemp5	set	136
  1234  007F                     wtemp6	set	127
  1235  007E                     ttemp	set	126
  1236  007E                     ttemp0	set	126
  1237  0081                     ttemp1	set	129
  1238  0084                     ttemp2	set	132
  1239  0087                     ttemp3	set	135
  1240  007F                     ttemp4	set	127
  1241  007E                     ltemp	set	126
  1242  007E                     ltemp0	set	126
  1243  0082                     ltemp1	set	130
  1244  0086                     ltemp2	set	134
  1245  0080                     ltemp3	set	128


Data Sizes:
    Strings     0
    Constant    0
    Data        0
    BSS         3
    Persistent  0
    Stack       0

Auto Spaces:
    Space          Size  Autos    Used
    COMMON           14     13      14
    BANK0            80     11      13
    BANK1            80      0       0
    BANK2            80      0       0
    BANK3            80      0       0
    BANK4            48      0       0

Pointer List with Targets:

    None.

Critical Paths under _main in COMMON

    None.

Critical Paths under _interruption in COMMON

    _interruption->_adconv
    _I2C_send_data->_I2C_idle_check

Critical Paths under _main in BANK0

    _main->_init
    _init->_init_adcon

Critical Paths under _interruption in BANK0

    None.

Critical Paths under _main in BANK1

    None.

Critical Paths under _interruption in BANK1

    None.

Critical Paths under _main in BANK2

    None.

Critical Paths under _interruption in BANK2

    None.

Critical Paths under _main in BANK3

    None.

Critical Paths under _interruption in BANK3

    None.

Critical Paths under _main in BANK4

    None.

Critical Paths under _interruption in BANK4

    None.

Call Graph Tables:

 ---------------------------------------------------------------------------------
 (Depth) Function   	        Calls       Base Space   Used Autos Params    Refs
 ---------------------------------------------------------------------------------
 (0) _main                                                 0     0      0     196
                               _init
 ---------------------------------------------------------------------------------
 (1) _init                                                 3     3      0     196
                                              8 BANK0      3     3      0
                    _init_I2C_master
                        _init_Timer4
                         _init_adcon
 ---------------------------------------------------------------------------------
 (2) _init_adcon                                           4     0      4     150
                                              4 BANK0      4     0      4
 ---------------------------------------------------------------------------------
 (2) _init_Timer4                                          0     0      0       0
 ---------------------------------------------------------------------------------
 (2) _init_I2C_master                                      0     0      0       0
 ---------------------------------------------------------------------------------
 Estimated maximum stack depth 2
 ---------------------------------------------------------------------------------
 (Depth) Function   	        Calls       Base Space   Used Autos Params    Refs
 ---------------------------------------------------------------------------------
 (3) _interruption                                         6     6      0     241
                                             11 COMMON     2     2      0
                                              0 BANK0      4     4      0
                      _I2C_send_data
                             _adconv
 ---------------------------------------------------------------------------------
 (4) _adconv                                              11     9      2     121
                                              0 COMMON    11     9      2
 ---------------------------------------------------------------------------------
 (4) _I2C_send_data                                        2     1      1      97
                                              1 COMMON     2     1      1
                     _I2C_idle_check
 ---------------------------------------------------------------------------------
 (5) _I2C_idle_check                                       1     1      0       0
                                              0 COMMON     1     1      0
 ---------------------------------------------------------------------------------
 Estimated maximum stack depth 5
 ---------------------------------------------------------------------------------

 Call Graph Graphs:

 _main (ROOT)
   _init
     _init_I2C_master
     _init_Timer4
     _init_adcon

 _interruption (ROOT)
   _I2C_send_data
     _I2C_idle_check
   _adconv

 Address spaces:
Name               Size   Autos  Total    Cost      Usage
BIGRAM             170      0       0       0        0.0%
EEDATA             100      0       0       0        0.0%
NULL                 0      0       0       0        0.0%
CODE                 0      0       0       0        0.0%
BITCOMMON            E      0       0       1        0.0%
BITSFR0              0      0       0       1        0.0%
SFR0                 0      0       0       1        0.0%
COMMON               E      D       E       2      100.0%
BITSFR1              0      0       0       2        0.0%
SFR1                 0      0       0       2        0.0%
BITSFR2              0      0       0       3        0.0%
SFR2                 0      0       0       3        0.0%
STACK                0      0       0       3        0.0%
BITSFR3              0      0       0       4        0.0%
SFR3                 0      0       0       4        0.0%
ABS                  0      0      1B       4        0.0%
BITBANK0            50      0       0       5        0.0%
BITSFR4              0      0       0       5        0.0%
SFR4                 0      0       0       5        0.0%
BANK0               50      B       D       6       16.3%
BITSFR5              0      0       0       6        0.0%
SFR5                 0      0       0       6        0.0%
BITBANK1            50      0       0       7        0.0%
BITSFR6              0      0       0       7        0.0%
SFR6                 0      0       0       7        0.0%
BANK1               50      0       0       8        0.0%
BITSFR7              0      0       0       8        0.0%
SFR7                 0      0       0       8        0.0%
BITBANK2            50      0       0       9        0.0%
BITSFR8              0      0       0       9        0.0%
SFR8                 0      0       0       9        0.0%
BANK2               50      0       0      10        0.0%
BITSFR9              0      0       0      10        0.0%
SFR9                 0      0       0      10        0.0%
BITBANK3            50      0       0      11        0.0%
BITSFR10             0      0       0      11        0.0%
SFR10                0      0       0      11        0.0%
BANK3               50      0       0      12        0.0%
BITSFR11             0      0       0      12        0.0%
SFR11                0      0       0      12        0.0%
BITBANK4            30      0       0      13        0.0%
BITSFR12             0      0       0      13        0.0%
SFR12                0      0       0      13        0.0%
BANK4               30      0       0      14        0.0%
BITSFR13             0      0       0      14        0.0%
SFR13                0      0       0      14        0.0%
BITSFR14             0      0       0      15        0.0%
SFR14                0      0       0      15        0.0%
DATA                 0      0      1B      15        0.0%
BITSFR15             0      0       0      16        0.0%
SFR15                0      0       0      16        0.0%
BITSFR16             0      0       0      17        0.0%
SFR16                0      0       0      17        0.0%
BITSFR17             0      0       0      18        0.0%
SFR17                0      0       0      18        0.0%
BITSFR18             0      0       0      19        0.0%
SFR18                0      0       0      19        0.0%
BITSFR19             0      0       0      20        0.0%
SFR19                0      0       0      20        0.0%
BITSFR20             0      0       0      21        0.0%
SFR20                0      0       0      21        0.0%
BITSFR21             0      0       0      22        0.0%
SFR21                0      0       0      22        0.0%
BITSFR22             0      0       0      23        0.0%
SFR22                0      0       0      23        0.0%
BITSFR23             0      0       0      24        0.0%
SFR23                0      0       0      24        0.0%
BITSFR24             0      0       0      25        0.0%
SFR24                0      0       0      25        0.0%
BITSFR25             0      0       0      26        0.0%
SFR25                0      0       0      26        0.0%
BITSFR26             0      0       0      27        0.0%
SFR26                0      0       0      27        0.0%
BITSFR27             0      0       0      28        0.0%
SFR27                0      0       0      28        0.0%
BITSFR28             0      0       0      29        0.0%
SFR28                0      0       0      29        0.0%
BITSFR29             0      0       0      30        0.0%
SFR29                0      0       0      30        0.0%
BITSFR30             0      0       0      31        0.0%
SFR30                0      0       0      31        0.0%
BITSFR31             0      0       0      32        0.0%
SFR31                0      0       0      32        0.0%


Microchip Technology PIC Macro Assembler V1.32 build 58300 
Symbol Table                                                                                   Wed Apr 19 10:34:27 2017

        ??_I2C_idle_check 0070               __CFG_CP$OFF 0000                        l86 0107  
                     l742 0075                       l744 0085                       _GIE 005F  
                     _RB3 006B                       u135 0073                       u145 0083  
                     _PR4 0416              __CFG_CPD$OFF 0000              __CFG_BORV$HI 0000  
            __CFG_LVP$OFF 0000                      _PEIE 005E                      i1l72 00CA  
                    i1l83 0043                      i1l69 00C2                      _TMR4 0415  
            __CFG_WRT$OFF 0000                      _main 0102                      _init 0050  
                    btemp 007E             __CFG_BOREN$ON 0000                      ltemp 007E  
                    start 0047                      ttemp 007E                      wtemp 007E  
           __CFG_IESO$OFF 0000              ?_init_Timer4 0070                     ?_main 0070  
                   ?_init 0070             __CFG_WDTE$OFF 0000                     _T4CON 0417  
                   i1l119 0092                     i1l760 0042                     i1l752 001C  
                   i1l676 00F8                     u16_25 0014                     _PORTA 000C  
                   _PORTB 000D                     _TRISA 008C                     _TRISB 008D  
           __CFG_PWRTE$ON 0000            __CFG_FCMEN$OFF 0000                     init@i 0029  
                   ltemp0 007E                     ltemp1 0082                     ltemp2 0086  
                   ltemp3 0080                     ttemp0 007E                     ttemp1 0081  
                   ttemp2 0084                     ttemp3 0087                     ttemp4 007F  
                   status 0003                     wtemp0 007E                     wtemp1 0080  
                   wtemp2 0082                     wtemp3 0084                     wtemp4 0086  
                   wtemp5 0088                     wtemp6 007F            __CFG_MCLRE$OFF 0000  
         __initialization 0049              __end_of_main 0108              __end_of_init 008B  
                  ??_main 002B                    ??_init 0028            __CFG_PLLEN$OFF 0000  
                  _BCL1IE 0493                    _BCL1IF 0093                    _ADCON0 009D  
                  _ADCON1 009E                    _ADRESH 009C                    _ADRESL 009B  
                  _ANSELA 018C                    _ANSELB 018D                    _OSCCON 0099  
                  _TMR4IE 0499                    _TMR4IF 0099                    _TMR4ON 20BA  
                  _SSP1IE 048B                    _SSP1IF 008B                    _adconv 008B  
          __CFG_STVREN$ON 0000  __size_of_init_I2C_master 000E   __end_of__initialization 004C  
  __size_of_I2C_send_data 001B            __pcstackCOMMON 0070             ?_interruption 0070  
    __size_of_init_Timer4 000B                __pbssBANK0 002B                __pmaintext 0102  
          ??_interruption 0020                   ?_adconv 0070                __pintentry 0004  
           _I2C_send_data 00B6                adconv@temp 0079                   _SSP1ADD 0212  
                 _SSP1BUF 0211         ??_init_I2C_master 0024           __size_of_adconv 002B  
              _init_adcon 00D1                   __ptext0 0000                   __ptext1 0050  
                 __ptext2 00D1                   __ptext3 00ED                   __ptext4 00DF  
                 __ptext6 008B                   __ptext7 00B6                   __ptext8 00F8  
          ?_I2C_send_data 0071   __size_of_I2C_idle_check 000A      end_of_initialization 004C  
        adconv@pin_select 0070          __CFG_FOSC$INTOSC 0000      __end_of_interruption 0047  
             ?_init_adcon 0024            __end_of_adconv 00B6           ??_I2C_send_data 0072  
     start_initialization 0049                  ??_adconv 0072          init_adcon@anselA 0024  
        init_adcon@anselB 0026             ??_init_Timer4 0024           _init_I2C_master 00DF  
          _I2C_idle_check 00F8               __pbssCOMMON 007D                 ___latbits 0001  
           __pcstackBANK0 0020       __size_of_init_adcon 000E    __end_of_I2C_idle_check 0102  
   __size_of_interruption 0043       __end_of_init_Timer4 00F8                 _send_data 007D  
                _GO_nDONE 04E9                  _SSP1CON1 0215                  _SSP1CON2 0216  
 __end_of_init_I2C_master 00ED              _interruption 0004                  _SSP1STAT 0214  
         ?_I2C_idle_check 0070              ??_init_adcon 0028               _init_Timer4 00ED  
            _SSP1CON2bits 0216         I2C_send_data@addr 0072         I2C_send_data@data 0071  
      __end_of_init_adcon 00DF             __size_of_main 0006             __size_of_init 003B  
        interruption@data 007B          ?_init_I2C_master 0070     __end_of_I2C_send_data 00D1  
             pic14e$flags 007E                  intlevel1 0000         __CFG_CLKOUTEN$OFF 0000  
     interruption@counter 002B  
